target datalayout = "e-m:e-p270:32:32-p271:32:32-p272:64:64-i64:64-i128:128-f80:128-n8:16:32:64-S128"
target triple = "x86_64-unknown-linux-gnu"

%struct.V9fsPath = type { i16, ptr }
%struct.CoMutex = type { i32, ptr, %struct.anon.3, %struct.anon.3, i32, i32, ptr }
%struct.anon.3 = type { ptr }
%struct.QemuMutex = type { %union.pthread_mutex_t, i8 }
%union.pthread_mutex_t = type { %struct.__pthread_mutex_s }
%struct.__pthread_mutex_s = type { i32, i32, i32, i32, i32, i16, i16, %struct.__pthread_internal_list }
%struct.__pthread_internal_list = type { ptr, ptr }
%struct.V9fsFidState = type { i32, i32, %struct.V9fsPath, %union.V9fsFidOpenState, %union.V9fsFidOpenState, i32, i32, i32, i32, i8, %struct.anon.6, %struct.anon.7 }
%union.V9fsFidOpenState = type { %struct.V9fsDir }
%struct.V9fsDir = type { ptr, i32, %struct.CoMutex, %struct.QemuMutex }
%struct.anon.6 = type { ptr }
%struct.anon.7 = type { ptr }
%struct.V9fsString = type { i16, ptr }
%struct.V9fsXattr = type { i64, i64, ptr, %struct.V9fsString, i32, i8 }

; Function Attrs: nounwind sspstrong uwtable
define internal i32 @v9fs_xattr_fid_clunk(ptr noundef %pdu, ptr noundef %fidp) #0 {
entry:
  %pdu.addr = alloca ptr, align 8
  %fidp.addr = alloca ptr, align 8
  %retval1 = alloca i32, align 4
  store ptr %pdu, ptr %pdu.addr, align 8
  store ptr %fidp, ptr %fidp.addr, align 8
  store i32 0, ptr %retval1, align 4
  %0 = load ptr, ptr %fidp.addr, align 8
  %fs = getelementptr inbounds %struct.V9fsFidState, ptr %0, i32 0, i32 3
  %xattrwalk_fid = getelementptr inbounds %struct.V9fsXattr, ptr %fs, i32 0, i32 5
  %1 = load i8, ptr %xattrwalk_fid, align 4
  %tobool = trunc i8 %1 to i1
  br i1 %tobool, label %if.then, label %if.end

if.then:                                          ; preds = %entry
  br label %free_value

if.end:                                           ; preds = %entry
  %2 = load ptr, ptr %fidp.addr, align 8
  %fs2 = getelementptr inbounds %struct.V9fsFidState, ptr %2, i32 0, i32 3
  %len = getelementptr inbounds %struct.V9fsXattr, ptr %fs2, i32 0, i32 1
  %3 = load i64, ptr %len, align 8
  %4 = load ptr, ptr %fidp.addr, align 8
  %fs3 = getelementptr inbounds %struct.V9fsFidState, ptr %4, i32 0, i32 3
  %copied_len = getelementptr inbounds %struct.V9fsXattr, ptr %fs3, i32 0, i32 0
  %5 = load i64, ptr %copied_len, align 8
  %cmp = icmp ne i64 %3, %5
  br i1 %cmp, label %if.then4, label %if.end5

if.then4:                                         ; preds = %if.end
  store i32 -22, ptr %retval1, align 4
  br label %free_out

if.end5:                                          ; preds = %if.end
  %6 = load ptr, ptr %fidp.addr, align 8
  %fs6 = getelementptr inbounds %struct.V9fsFidState, ptr %6, i32 0, i32 3
  %len7 = getelementptr inbounds %struct.V9fsXattr, ptr %fs6, i32 0, i32 1
  %7 = load i64, ptr %len7, align 8
  %tobool8 = icmp ne i64 %7, 0
  br i1 %tobool8, label %if.then9, label %if.else

if.then9:                                         ; preds = %if.end5
  %8 = load ptr, ptr %pdu.addr, align 8
  %9 = load ptr, ptr %fidp.addr, align 8
  %path = getelementptr inbounds %struct.V9fsFidState, ptr %9, i32 0, i32 2
  %10 = load ptr, ptr %fidp.addr, align 8
  %fs10 = getelementptr inbounds %struct.V9fsFidState, ptr %10, i32 0, i32 3
  %name = getelementptr inbounds %struct.V9fsXattr, ptr %fs10, i32 0, i32 3
  %11 = load ptr, ptr %fidp.addr, align 8
  %fs11 = getelementptr inbounds %struct.V9fsFidState, ptr %11, i32 0, i32 3
  %value = getelementptr inbounds %struct.V9fsXattr, ptr %fs11, i32 0, i32 2
  %12 = load ptr, ptr %value, align 8
  %13 = load ptr, ptr %fidp.addr, align 8
  %fs12 = getelementptr inbounds %struct.V9fsFidState, ptr %13, i32 0, i32 3
  %len13 = getelementptr inbounds %struct.V9fsXattr, ptr %fs12, i32 0, i32 1
  %14 = load i64, ptr %len13, align 8
  %15 = load ptr, ptr %fidp.addr, align 8
  %fs14 = getelementptr inbounds %struct.V9fsFidState, ptr %15, i32 0, i32 3
  %flags = getelementptr inbounds %struct.V9fsXattr, ptr %fs14, i32 0, i32 4
  %16 = load i32, ptr %flags, align 8
  %call = call i32 @v9fs_co_lsetxattr(ptr noundef %8, ptr noundef %path, ptr noundef %name, ptr noundef %12, i64 noundef %14, i32 noundef %16)
  store i32 %call, ptr %retval1, align 4
  br label %if.end19

if.else:                                          ; preds = %if.end5
  %17 = load ptr, ptr %pdu.addr, align 8
  %18 = load ptr, ptr %fidp.addr, align 8
  %path15 = getelementptr inbounds %struct.V9fsFidState, ptr %18, i32 0, i32 2
  %19 = load ptr, ptr %fidp.addr, align 8
  %fs16 = getelementptr inbounds %struct.V9fsFidState, ptr %19, i32 0, i32 3
  %name17 = getelementptr inbounds %struct.V9fsXattr, ptr %fs16, i32 0, i32 3
  %call18 = call i32 @v9fs_co_lremovexattr(ptr noundef %17, ptr noundef %path15, ptr noundef %name17)
  store i32 %call18, ptr %retval1, align 4
  br label %if.end19

if.end19:                                         ; preds = %if.else, %if.then9
  br label %free_out

free_out:                                         ; preds = %if.end19, %if.then4
  %20 = load ptr, ptr %fidp.addr, align 8
  %fs20 = getelementptr inbounds %struct.V9fsFidState, ptr %20, i32 0, i32 3
  %name21 = getelementptr inbounds %struct.V9fsXattr, ptr %fs20, i32 0, i32 3
  call void @v9fs_string_free(ptr noundef %name21)
  br label %free_value

free_value:                                       ; preds = %free_out, %if.then
  %21 = load ptr, ptr %fidp.addr, align 8
  %fs22 = getelementptr inbounds %struct.V9fsFidState, ptr %21, i32 0, i32 3
  %value23 = getelementptr inbounds %struct.V9fsXattr, ptr %fs22, i32 0, i32 2
  %22 = load ptr, ptr %value23, align 8
  call void @g_free(ptr noundef %22)
  %23 = load i32, ptr %retval1, align 4
  ret i32 %23
}