; Function Attrs: nounwind sspstrong uwtable
define internal i32 @v9fs_xattr_fid_clunk(ptr noundef %pdu, ptr noundef %fidp) #0 {
entry:
  %xattrwalk_fid = getelementptr inbounds nuw i8, ptr %fidp, i64 68
  %0 = load i8, ptr %xattrwalk_fid, align 4
  %tobool = trunc i8 %0 to i1
  br i1 %tobool, label %free_value, label %if.end

if.end:                                           ; preds = %entry
  %fs = getelementptr inbounds nuw i8, ptr %fidp, i64 24
  %len = getelementptr inbounds nuw i8, ptr %fidp, i64 32
  %1 = load i64, ptr %len, align 8
  %2 = load i64, ptr %fs, align 8
  %cmp.not = icmp eq i64 %1, %2
  br i1 %cmp.not, label %if.end5, label %free_out

if.end5:                                          ; preds = %if.end
  %tobool8.not = icmp eq i64 %1, 0
  %path15 = getelementptr inbounds nuw i8, ptr %fidp, i64 8
  %name17 = getelementptr inbounds nuw i8, ptr %fidp, i64 48
  br i1 %tobool8.not, label %if.else, label %if.then9

if.then9:                                         ; preds = %if.end5
  %value = getelementptr inbounds nuw i8, ptr %fidp, i64 40
  %3 = load ptr, ptr %value, align 8
  %flags = getelementptr inbounds nuw i8, ptr %fidp, i64 64
  %4 = load i32, ptr %flags, align 8
  %call = tail call i32 @v9fs_co_lsetxattr(ptr noundef %pdu, ptr noundef nonnull %path15, ptr noundef nonnull %name17, ptr noundef %3, i64 noundef %1, i32 noundef %4) #24
  br label %free_out

if.else:                                          ; preds = %if.end5
  %call18 = tail call i32 @v9fs_co_lremovexattr(ptr noundef %pdu, ptr noundef nonnull %path15, ptr noundef nonnull %name17) #24
  br label %free_out

free_out:                                         ; preds = %if.end, %if.then9, %if.else
  %retval1.1 = phi i32 [ %call, %if.then9 ], [ %call18, %if.else ], [ -22, %if.end ]
  %name21 = getelementptr inbounds nuw i8, ptr %fidp, i64 48
  tail call void @v9fs_string_free(ptr noundef nonnull %name21) #24
  br label %free_value

free_value:                                       ; preds = %entry, %free_out
  %retval1.0 = phi i32 [ 0, %entry ], [ %retval1.1, %free_out ]
  %value23 = getelementptr inbounds nuw i8, ptr %fidp, i64 40
  %5 = load ptr, ptr %value23, align 8
  tail call void @g_free(ptr noundef %5) #24
  ret i32 %retval1.0
}